target datalayout = "e-m:e-p270:32:32-p271:32:32-p272:64:64-i64:64-i128:128-f80:128-n8:16:32:64-S128"
target triple = "x86_64-pc-linux-gnu"

@.str.4 = private unnamed_addr constant [2 x i8] c"\0A\00", align 1
@.str.5 = private unnamed_addr constant [43 x i8] c"    extract_counter [options] [selection]\0A\00", align 1
@.str.6 = private unnamed_addr constant [82 x i8] c"This pass converts non-resettable or async resettable counters to counter cells.\0A\00", align 1
@.str.7 = private unnamed_addr constant [79 x i8] c"Use a target-specific 'techmap' map file to convert those cells to the actual\0A\00", align 1
@.str.8 = private unnamed_addr constant [15 x i8] c"target cells.\0A\00", align 1
@.str.9 = private unnamed_addr constant [17 x i8] c"    -maxwidth N\0A\00", align 1
@.str.10 = private unnamed_addr constant [62 x i8] c"        Only extract counters up to N bits wide (default 64)\0A\00", align 1
@.str.11 = private unnamed_addr constant [17 x i8] c"    -minwidth N\0A\00", align 1
@.str.12 = private unnamed_addr constant [64 x i8] c"        Only extract counters at least N bits wide (default 2)\0A\00", align 1
@.str.13 = private unnamed_addr constant [24 x i8] c"    -allow_arst yes|no\0A\00", align 1
@.str.14 = private unnamed_addr constant [58 x i8] c"        Allow counters to have async reset (default yes)\0A\00", align 1
@.str.15 = private unnamed_addr constant [23 x i8] c"    -dir up|down|both\0A\00", align 1
@.str.16 = private unnamed_addr constant [69 x i8] c"        Look for up-counters, down-counters, or both (default down)\0A\00", align 1
@.str.17 = private unnamed_addr constant [19 x i8] c"    -pout X,Y,...\0A\00", align 1
@.str.18 = private unnamed_addr constant [78 x i8] c"        Only allow parallel output from the counter to the listed cell types\0A\00", align 1
@.str.19 = private unnamed_addr constant [65 x i8] c"        (if not specified, parallel outputs are not restricted)\0A\00", align 1

; Function Attrs: mustprogress uwtable
define internal void @_ZN12_GLOBAL__N_118ExtractCounterPass4helpEv(ptr noundef nonnull align 8 dereferenceable(104) %0) unnamed_addr #4 align 2 {
  %2 = alloca ptr, align 8
  store ptr %0, ptr %2, align 8, !tbaa !6
  call void (ptr, ...) @_ZN5Yosys3logEPKcz(ptr noundef @.str.4)
  call void (ptr, ...) @_ZN5Yosys3logEPKcz(ptr noundef @.str.5)
  call void (ptr, ...) @_ZN5Yosys3logEPKcz(ptr noundef @.str.4)
  call void (ptr, ...) @_ZN5Yosys3logEPKcz(ptr noundef @.str.6)
  call void (ptr, ...) @_ZN5Yosys3logEPKcz(ptr noundef @.str.7)
  call void (ptr, ...) @_ZN5Yosys3logEPKcz(ptr noundef @.str.8)
  call void (ptr, ...) @_ZN5Yosys3logEPKcz(ptr noundef @.str.4)
  call void (ptr, ...) @_ZN5Yosys3logEPKcz(ptr noundef @.str.9)
  call void (ptr, ...) @_ZN5Yosys3logEPKcz(ptr noundef @.str.10)
  call void (ptr, ...) @_ZN5Yosys3logEPKcz(ptr noundef @.str.4)
  call void (ptr, ...) @_ZN5Yosys3logEPKcz(ptr noundef @.str.11)
  call void (ptr, ...) @_ZN5Yosys3logEPKcz(ptr noundef @.str.12)
  call void (ptr, ...) @_ZN5Yosys3logEPKcz(ptr noundef @.str.4)
  call void (ptr, ...) @_ZN5Yosys3logEPKcz(ptr noundef @.str.13)
  call void (ptr, ...) @_ZN5Yosys3logEPKcz(ptr noundef @.str.14)
  call void (ptr, ...) @_ZN5Yosys3logEPKcz(ptr noundef @.str.4)
  call void (ptr, ...) @_ZN5Yosys3logEPKcz(ptr noundef @.str.15)
  call void (ptr, ...) @_ZN5Yosys3logEPKcz(ptr noundef @.str.16)
  call void (ptr, ...) @_ZN5Yosys3logEPKcz(ptr noundef @.str.4)
  call void (ptr, ...) @_ZN5Yosys3logEPKcz(ptr noundef @.str.17)
  call void (ptr, ...) @_ZN5Yosys3logEPKcz(ptr noundef @.str.18)
  call void (ptr, ...) @_ZN5Yosys3logEPKcz(ptr noundef @.str.19)
  call void (ptr, ...) @_ZN5Yosys3logEPKcz(ptr noundef @.str.4)
  call void (ptr, ...) @_ZN5Yosys3logEPKcz(ptr noundef @.str.4)
  ret void
}